target datalayout = "e-m:e-p270:32:32-p271:32:32-p272:64:64-i64:64-i128:128-f80:128-n8:16:32:64-S128"
target triple = "x86_64-pc-linux-gnu"

%struct.oidset = type { %struct.kh_oid_set }
%struct.kh_oid_set = type { i32, i32, i32, i32, ptr, ptr, ptr }
%struct.packed_git = type { %struct.hashmap_entry, ptr, %struct.list_head, ptr, i64, ptr, i64, i32, i64, %struct.oidset, i32, i64, i32, i32, i8, [32 x i8], ptr, ptr, ptr, i64, ptr, i64, ptr, [0 x i8] }
%struct.hashmap_entry = type { ptr, i32 }
%struct.list_head = type { ptr, ptr }

@local = internal global i32 0, align 4
@incremental = internal global i32 0, align 4
@ignore_packed_keep_on_disk = internal global i32 0, align 4
@have_non_local_packs = internal global i32 0, align 4
@ignore_packed_keep_in_core = internal global i32 0, align 4

; Function Attrs: nounwind uwtable
define internal i32 @want_found_object(ptr noundef %0, i32 noundef %1, ptr noundef %2) #0 {
  %4 = alloca i32, align 4
  %5 = alloca ptr, align 8
  %6 = alloca i32, align 4
  %7 = alloca ptr, align 8
  %8 = alloca i32, align 4
  %9 = alloca i32, align 4
  store ptr %0, ptr %5, align 8, !tbaa !190
  store i32 %1, ptr %6, align 4, !tbaa !27
  store ptr %2, ptr %7, align 8, !tbaa !15
  %10 = load i32, ptr %6, align 4, !tbaa !27
  %11 = icmp ne i32 %10, 0
  br i1 %11, label %12, label %13

12:                                               ; preds = %3
  store i32 1, ptr %4, align 4
  br label %96

13:                                               ; preds = %3
  %14 = load i32, ptr @incremental, align 4, !tbaa !27
  %15 = icmp ne i32 %14, 0
  br i1 %15, label %16, label %17

16:                                               ; preds = %13
  store i32 0, ptr %4, align 4
  br label %96

17:                                               ; preds = %13
  %18 = load ptr, ptr %7, align 8, !tbaa !15
  %19 = call i32 @is_pack_valid(ptr noundef %18)
  %20 = icmp ne i32 %19, 0
  br i1 %20, label %22, label %21

21:                                               ; preds = %17
  store i32 -1, ptr %4, align 4
  br label %96

22:                                               ; preds = %17
  %23 = load i32, ptr @local, align 4, !tbaa !27
  %24 = icmp ne i32 %23, 0
  br i1 %24, label %25, label %33

25:                                               ; preds = %22
  %26 = load ptr, ptr %7, align 8, !tbaa !15
  %27 = getelementptr inbounds nuw %struct.packed_git, ptr %26, i32 0, i32 14
  %28 = load i8, ptr %27, align 8
  %29 = and i8 %28, 1
  %30 = zext i8 %29 to i32
  %31 = icmp ne i32 %30, 0
  br i1 %31, label %33, label %32

32:                                               ; preds = %25
  store i32 0, ptr %4, align 4
  br label %96

33:                                               ; preds = %25, %22
  %34 = load i32, ptr @ignore_packed_keep_on_disk, align 4, !tbaa !27
  %35 = icmp ne i32 %34, 0
  br i1 %35, label %39, label %36

36:                                               ; preds = %33
  %37 = load i32, ptr @ignore_packed_keep_in_core, align 4, !tbaa !27
  %38 = icmp ne i32 %37, 0
  br i1 %38, label %39, label %88

39:                                               ; preds = %36, %33
  call void @llvm.lifetime.start.p0(i64 4, ptr %8) #11
  store i32 0, ptr %8, align 4, !tbaa !27
  %40 = load i32, ptr @ignore_packed_keep_on_disk, align 4, !tbaa !27
  %41 = icmp ne i32 %40, 0
  br i1 %41, label %42, label %45

42:                                               ; preds = %39
  %43 = load i32, ptr %8, align 4, !tbaa !27
  %44 = or i32 %43, 1
  store i32 %44, ptr %8, align 4, !tbaa !27
  br label %45

45:                                               ; preds = %42, %39
  %46 = load i32, ptr @ignore_packed_keep_in_core, align 4, !tbaa !27
  %47 = icmp ne i32 %46, 0
  br i1 %47, label %48, label %51

48:                                               ; preds = %45
  %49 = load i32, ptr %8, align 4, !tbaa !27
  %50 = or i32 %49, 2
  store i32 %50, ptr %8, align 4, !tbaa !27
  br label %51

51:                                               ; preds = %48, %45
  %52 = load i32, ptr @ignore_packed_keep_on_disk, align 4, !tbaa !27
  %53 = icmp ne i32 %52, 0
  br i1 %53, label %54, label %63

54:                                               ; preds = %51
  %55 = load ptr, ptr %7, align 8, !tbaa !15
  %56 = getelementptr inbounds nuw %struct.packed_git, ptr %55, i32 0, i32 14
  %57 = load i8, ptr %56, align 8
  %58 = lshr i8 %57, 1
  %59 = and i8 %58, 1
  %60 = zext i8 %59 to i32
  %61 = icmp ne i32 %60, 0
  br i1 %61, label %62, label %63

62:                                               ; preds = %54
  store i32 0, ptr %4, align 4
  store i32 1, ptr %9, align 4
  br label %85

63:                                               ; preds = %54, %51
  %64 = load i32, ptr @ignore_packed_keep_in_core, align 4, !tbaa !27
  %65 = icmp ne i32 %64, 0
  br i1 %65, label %66, label %75

66:                                               ; preds = %63
  %67 = load ptr, ptr %7, align 8, !tbaa !15
  %68 = getelementptr inbounds nuw %struct.packed_git, ptr %67, i32 0, i32 14
  %69 = load i8, ptr %68, align 8
  %70 = lshr i8 %69, 2
  %71 = and i8 %70, 1
  %72 = zext i8 %71 to i32
  %73 = icmp ne i32 %72, 0
  br i1 %73, label %74, label %75

74:                                               ; preds = %66
  store i32 0, ptr %4, align 4
  store i32 1, ptr %9, align 4
  br label %85

75:                                               ; preds = %66, %63
  %76 = load ptr, ptr %7, align 8, !tbaa !15
  %77 = getelementptr inbounds nuw %struct.packed_git, ptr %76, i32 0, i32 22
  %78 = load ptr, ptr %77, align 8, !tbaa !11
  %79 = load ptr, ptr %5, align 8, !tbaa !190
  %80 = load i32, ptr %8, align 4, !tbaa !27
  %81 = call i32 @has_object_kept_pack(ptr noundef %78, ptr noundef %79, i32 noundef %80)
  %82 = icmp ne i32 %81, 0
  br i1 %82, label %83, label %84

83:                                               ; preds = %75
  store i32 0, ptr %4, align 4
  store i32 1, ptr %9, align 4
  br label %85

84:                                               ; preds = %75
  store i32 0, ptr %9, align 4
  br label %85

85:                                               ; preds = %84, %83, %74, %62
  call void @llvm.lifetime.end.p0(i64 4, ptr %8) #11
  %86 = load i32, ptr %9, align 4
  switch i32 %86, label %98 [
    i32 0, label %87
    i32 1, label %96
  ]

87:                                               ; preds = %85
  br label %88

88:                                               ; preds = %87, %36
  %89 = load i32, ptr @local, align 4, !tbaa !27
  %90 = icmp ne i32 %89, 0
  br i1 %90, label %91, label %94

91:                                               ; preds = %88
  %92 = load i32, ptr @have_non_local_packs, align 4, !tbaa !27
  %93 = icmp ne i32 %92, 0
  br i1 %93, label %95, label %94

94:                                               ; preds = %91, %88
  store i32 1, ptr %4, align 4
  br label %96

95:                                               ; preds = %91
  store i32 -1, ptr %4, align 4
  br label %96

96:                                               ; preds = %95, %94, %85, %32, %21, %16, %12
  %97 = load i32, ptr %4, align 4
  ret i32 %97

98:                                               ; preds = %85
  unreachable
}

; Function Attrs: nounwind uwtable
define internal i32 @want_object_in_pack_one(ptr noundef %0, ptr noundef %1, i32 noundef %2, ptr noundef %3, ptr noundef %4) #0 {
  %6 = alloca i32, align 4
  %7 = alloca ptr, align 8
  %8 = alloca ptr, align 8
  %9 = alloca i32, align 4
  %10 = alloca ptr, align 8
  %11 = alloca ptr, align 8
  %12 = alloca i64, align 8
  %13 = alloca i32, align 4
  store ptr %0, ptr %7, align 8, !tbaa !15
  store ptr %1, ptr %8, align 8, !tbaa !190
  store i32 %2, ptr %9, align 4, !tbaa !27
  store ptr %3, ptr %10, align 8, !tbaa !247
  store ptr %4, ptr %11, align 8, !tbaa !248
  call void @llvm.lifetime.start.p0(i64 8, ptr %12) #11
  %14 = load ptr, ptr %7, align 8, !tbaa !15
  %15 = load ptr, ptr %10, align 8, !tbaa !247
  %16 = load ptr, ptr %15, align 8, !tbaa !15
  %17 = icmp eq ptr %14, %16
  br i1 %17, label %18, label %21

18:                                               ; preds = %5
  %19 = load ptr, ptr %11, align 8, !tbaa !248
  %20 = load i64, ptr %19, align 8, !tbaa !13
  store i64 %20, ptr %12, align 8, !tbaa !13
  br label %25

21:                                               ; preds = %5
  %22 = load ptr, ptr %8, align 8, !tbaa !190
  %23 = load ptr, ptr %7, align 8, !tbaa !15
  %24 = call i64 @find_pack_entry_one(ptr noundef %22, ptr noundef %23)
  store i64 %24, ptr %12, align 8, !tbaa !13
  br label %25

25:                                               ; preds = %21, %18
  %26 = load i64, ptr %12, align 8, !tbaa !13
  %27 = icmp ne i64 %26, 0
  br i1 %27, label %28, label %47

28:                                               ; preds = %25
  %29 = load ptr, ptr %10, align 8, !tbaa !247
  %30 = load ptr, ptr %29, align 8, !tbaa !15
  %31 = icmp ne ptr %30, null
  br i1 %31, label %42, label %32

32:                                               ; preds = %28
  %33 = load ptr, ptr %7, align 8, !tbaa !15
  %34 = call i32 @is_pack_valid(ptr noundef %33)
  %35 = icmp ne i32 %34, 0
  br i1 %35, label %37, label %36

36:                                               ; preds = %32
  store i32 -1, ptr %6, align 4
  store i32 1, ptr %13, align 4
  br label %48

37:                                               ; preds = %32
  %38 = load i64, ptr %12, align 8, !tbaa !13
  %39 = load ptr, ptr %11, align 8, !tbaa !248
  store i64 %38, ptr %39, align 8, !tbaa !13
  %40 = load ptr, ptr %7, align 8, !tbaa !15
  %41 = load ptr, ptr %10, align 8, !tbaa !247
  store ptr %40, ptr %41, align 8, !tbaa !15
  br label %42

42:                                               ; preds = %37, %28
  %43 = load ptr, ptr %8, align 8, !tbaa !190
  %44 = load i32, ptr %9, align 4, !tbaa !27
  %45 = load ptr, ptr %7, align 8, !tbaa !15
  %46 = call i32 @want_found_object(ptr noundef %43, i32 noundef %44, ptr noundef %45)
  store i32 %46, ptr %6, align 4
  store i32 1, ptr %13, align 4
  br label %48

47:                                               ; preds = %25
  store i32 -1, ptr %6, align 4
  store i32 1, ptr %13, align 4
  br label %48

48:                                               ; preds = %47, %42, %36
  call void @llvm.lifetime.end.p0(i64 8, ptr %12) #11
  %49 = load i32, ptr %6, align 4
  ret i32 %49
}