; Function Attrs: nounwind uwtable
define internal fastcc range(i32 -1, 2) i32 @want_object_in_pack_one(ptr noundef %0, ptr noundef %1, i32 noundef range(i32 0, 2) %2, ptr noundef nonnull captures(none) %3, ptr noundef nonnull captures(none) %4) unnamed_addr #0 {
  %6 = load ptr, ptr %3, align 8, !tbaa !20
  %7 = icmp eq ptr %0, %6
  br i1 %7, label %8, label %10

8:                                                ; preds = %5
  %9 = load i64, ptr %4, align 8, !tbaa !28
  br label %12

10:                                               ; preds = %5
  %11 = tail call i64 @find_pack_entry_one(ptr noundef %1, ptr noundef %0) #25
  br label %12

12:                                               ; preds = %10, %8
  %.0 = phi i64 [ %9, %8 ], [ %11, %10 ]
  %.not = icmp eq i64 %.0, 0
  br i1 %.not, label %want_found_object.exit, label %13

13:                                               ; preds = %12
  %14 = load ptr, ptr %3, align 8, !tbaa !20
  %.not17 = icmp eq ptr %14, null
  br i1 %.not17, label %15, label %18

15:                                               ; preds = %13
  %16 = tail call i32 @is_pack_valid(ptr noundef %0) #25
  %.not18 = icmp eq i32 %16, 0
  br i1 %.not18, label %want_found_object.exit, label %17

17:                                               ; preds = %15
  store i64 %.0, ptr %4, align 8, !tbaa !28
  store ptr %0, ptr %3, align 8, !tbaa !20
  br label %18

18:                                               ; preds = %17, %13
  %.not.i = icmp eq i32 %2, 0
  br i1 %.not.i, label %19, label %want_found_object.exit

19:                                               ; preds = %18
  %20 = load i32, ptr @incremental, align 4, !tbaa !30
  %.not20.i = icmp eq i32 %20, 0
  br i1 %.not20.i, label %21, label %want_found_object.exit

21:                                               ; preds = %19
  %22 = tail call i32 @is_pack_valid(ptr noundef %0) #25
  %.not21.i = icmp eq i32 %22, 0
  br i1 %.not21.i, label %want_found_object.exit, label %23

23:                                               ; preds = %21
  %24 = load i32, ptr @local, align 4, !tbaa !30
  %.not22.i = icmp eq i32 %24, 0
  br i1 %.not22.i, label %29, label %25

25:                                               ; preds = %23
  %26 = getelementptr inbounds nuw i8, ptr %0, i64 152
  %27 = load i8, ptr %26, align 8
  %28 = and i8 %27, 1
  %.not23.i = icmp eq i8 %28, 0
  br i1 %.not23.i, label %want_found_object.exit, label %29

29:                                               ; preds = %25, %23
  %30 = load i32, ptr @ignore_packed_keep_on_disk, align 4, !tbaa !30
  %31 = icmp ne i32 %30, 0
  %.b17.i = load i1, ptr @ignore_packed_keep_in_core, align 4
  %or.cond.i = select i1 %31, i1 true, i1 %.b17.i
  br i1 %or.cond.i, label %32, label %47

32:                                               ; preds = %29
  %spec.select.i = zext i1 %31 to i32
  %33 = or disjoint i32 %spec.select.i, 2
  %.1.i = select i1 %.b17.i, i32 %33, i32 %spec.select.i
  %.not24.i = icmp eq i32 %30, 0
  br i1 %.not24.i, label %38, label %34

34:                                               ; preds = %32
  %35 = getelementptr inbounds nuw i8, ptr %0, i64 152
  %36 = load i8, ptr %35, align 8
  %37 = and i8 %36, 2
  %.not25.i = icmp eq i8 %37, 0
  br i1 %.not25.i, label %38, label %want_found_object.exit

38:                                               ; preds = %34, %32
  br i1 %.b17.i, label %39, label %43

39:                                               ; preds = %38
  %40 = getelementptr inbounds nuw i8, ptr %0, i64 152
  %41 = load i8, ptr %40, align 8
  %42 = and i8 %41, 4
  %.not26.i = icmp eq i8 %42, 0
  br i1 %.not26.i, label %43, label %want_found_object.exit

43:                                               ; preds = %39, %38
  %44 = getelementptr inbounds nuw i8, ptr %0, i64 240
  %45 = load ptr, ptr %44, align 8, !tbaa !4
  %46 = tail call i32 @has_object_kept_pack(ptr noundef %45, ptr noundef %1, i32 noundef %.1.i) #25
  %.not27.i = icmp eq i32 %46, 0
  br i1 %.not27.i, label %._crit_edge.i, label %want_found_object.exit

._crit_edge.i:                                    ; preds = %43
  %.pre.i = load i32, ptr @local, align 4, !tbaa !30
  br label %47

47:                                               ; preds = %._crit_edge.i, %29
  %48 = phi i32 [ %.pre.i, %._crit_edge.i ], [ %24, %29 ]
  %49 = icmp ne i32 %48, 0
  %.b.i = load i1, ptr @have_non_local_packs, align 4
  %or.cond3.i = select i1 %49, i1 %.b.i, i1 false
  %.28.i = select i1 %or.cond3.i, i32 -1, i32 1
  br label %want_found_object.exit

want_found_object.exit:                           ; preds = %47, %43, %39, %34, %25, %21, %19, %18, %12, %15
  %.015 = phi i32 [ -1, %15 ], [ -1, %12 ], [ 1, %18 ], [ 0, %19 ], [ -1, %21 ], [ 0, %25 ], [ %.28.i, %47 ], [ 0, %34 ], [ 0, %39 ], [ 0, %43 ]
  ret i32 %.015
}